target datalayout = "e-m:e-p270:32:32-p271:32:32-p272:64:64-i64:64-i128:128-f80:128-n8:16:32:64-S128"
target triple = "x86_64-pc-linux-gnu"

%struct.Int128_ = type { i64, i64 }
%struct.Int = type { %struct.Int128_, i32 }

@.str = private unnamed_addr constant [36 x i8] c"FATAL ERROR %s -> in %s @ in %s:%d \00", align 1
@.str.1 = private unnamed_addr constant [22 x i8] c"Should be unreachable\00", align 1
@__func__.binary_op_matches_res = private unnamed_addr constant [22 x i8] c"binary_op_matches_res\00", align 1
@.str.2 = private unnamed_addr constant [107 x i8] c"generated/home/dtcxzyw/WorkSpace/Projects/compilers/llvm-opt-benchmark/bench/c3c/c3c/src/compiler/bigint.c\00", align 1

; Function Attrs: nounwind uwtable
define dso_local zeroext i1 @i128_is_neg(i64 %0, i64 %1) #0 {
  %3 = alloca %struct.Int128_, align 8
  %4 = getelementptr inbounds { i64, i64 }, ptr %3, i32 0, i32 0
  store i64 %0, ptr %4, align 8
  %5 = getelementptr inbounds { i64, i64 }, ptr %3, i32 0, i32 1
  store i64 %1, ptr %5, align 8
  %6 = getelementptr inbounds %struct.Int128_, ptr %3, i32 0, i32 0
  %7 = load i64, ptr %6, align 8
  %8 = lshr i64 %7, 63
  %9 = icmp ne i64 %8, 0
  ret i1 %9
}

; Function Attrs: nounwind uwtable
define dso_local zeroext i1 @binary_op_matches_res(i32 noundef %0, i32 noundef %1) #0 {
  %3 = alloca i1, align 1
  %4 = alloca i32, align 4
  %5 = alloca i32, align 4
  store i32 %0, ptr %4, align 4
  store i32 %1, ptr %5, align 4
  %6 = load i32, ptr %4, align 4
  switch i32 %6, label %25 [
    i32 14, label %7
    i32 15, label %10
    i32 16, label %13
    i32 17, label %16
    i32 18, label %19
    i32 19, label %22
  ]

7:                                                ; preds = %2
  %8 = load i32, ptr %5, align 4
  %9 = icmp eq i32 %8, 1
  store i1 %9, ptr %3, align 1
  br label %28

10:                                               ; preds = %2
  %11 = load i32, ptr %5, align 4
  %12 = icmp ne i32 %11, -1
  store i1 %12, ptr %3, align 1
  br label %28

13:                                               ; preds = %2
  %14 = load i32, ptr %5, align 4
  %15 = icmp eq i32 %14, -1
  store i1 %15, ptr %3, align 1
  br label %28

16:                                               ; preds = %2
  %17 = load i32, ptr %5, align 4
  %18 = icmp ne i32 %17, 1
  store i1 %18, ptr %3, align 1
  br label %28

19:                                               ; preds = %2
  %20 = load i32, ptr %5, align 4
  %21 = icmp ne i32 %20, 0
  store i1 %21, ptr %3, align 1
  br label %28

22:                                               ; preds = %2
  %23 = load i32, ptr %5, align 4
  %24 = icmp eq i32 %23, 0
  store i1 %24, ptr %3, align 1
  br label %28

25:                                               ; preds = %2
  br label %26

26:                                               ; preds = %25
  call void (ptr, ...) @error_exit(ptr noundef @.str, ptr noundef @.str.1, ptr noundef @__func__.binary_op_matches_res, ptr noundef @.str.2, i32 noundef 598) #8
  unreachable

27:                                               ; No predecessors!
  br label %28

28:                                               ; preds = %27, %22, %19, %16, %13, %10, %7
  %29 = load i1, ptr %3, align 1
  ret i1 %29
}

; Function Attrs: nounwind uwtable
define internal i32 @int_unsigned_compare(ptr noundef byval(%struct.Int) align 8 %0, i64 noundef %1) #0 {
  %3 = alloca i32, align 4
  %4 = alloca i32, align 4
  %5 = alloca i64, align 8
  store i64 %1, ptr %5, align 8
  %6 = getelementptr inbounds %struct.Int, ptr %0, i32 0, i32 1
  %7 = load i32, ptr %6, align 8
  store i32 %7, ptr %3, align 4
  %8 = load i32, ptr %3, align 4
  %9 = icmp uge i32 %8, 3
  br i1 %9, label %10, label %13

10:                                               ; preds = %2
  %11 = load i32, ptr %3, align 4
  %12 = icmp ult i32 %11, 8
  br label %13

13:                                               ; preds = %10, %2
  %14 = phi i1 [ false, %2 ], [ %12, %10 ]
  br i1 %14, label %15, label %23

15:                                               ; preds = %13
  %16 = getelementptr inbounds %struct.Int, ptr %0, i32 0, i32 0
  %17 = getelementptr inbounds { i64, i64 }, ptr %16, i32 0, i32 0
  %18 = load i64, ptr %17, align 8
  %19 = getelementptr inbounds { i64, i64 }, ptr %16, i32 0, i32 1
  %20 = load i64, ptr %19, align 8
  %21 = call zeroext i1 @i128_is_neg(i64 %18, i64 %20)
  br i1 %21, label %22, label %23

22:                                               ; preds = %15
  store i32 -1, ptr %4, align 4
  br label %43

23:                                               ; preds = %15, %13
  %24 = getelementptr inbounds %struct.Int, ptr %0, i32 0, i32 0
  %25 = getelementptr inbounds %struct.Int128_, ptr %24, i32 0, i32 0
  %26 = load i64, ptr %25, align 8
  %27 = icmp ne i64 %26, 0
  br i1 %27, label %34, label %28

28:                                               ; preds = %23
  %29 = getelementptr inbounds %struct.Int, ptr %0, i32 0, i32 0
  %30 = getelementptr inbounds %struct.Int128_, ptr %29, i32 0, i32 1
  %31 = load i64, ptr %30, align 8
  %32 = load i64, ptr %5, align 8
  %33 = icmp ugt i64 %31, %32
  br i1 %33, label %34, label %35

34:                                               ; preds = %28, %23
  store i32 1, ptr %4, align 4
  br label %43

35:                                               ; preds = %28
  %36 = getelementptr inbounds %struct.Int, ptr %0, i32 0, i32 0
  %37 = getelementptr inbounds %struct.Int128_, ptr %36, i32 0, i32 1
  %38 = load i64, ptr %37, align 8
  %39 = load i64, ptr %5, align 8
  %40 = icmp ult i64 %38, %39
  br i1 %40, label %41, label %42

41:                                               ; preds = %35
  store i32 -1, ptr %4, align 4
  br label %43

42:                                               ; preds = %35
  store i32 0, ptr %4, align 4
  br label %43

43:                                               ; preds = %42, %41, %34, %22
  %44 = load i32, ptr %4, align 4
  ret i32 %44
}

; Function Attrs: nounwind uwtable
define dso_local zeroext i1 @int_ucomp(ptr noundef byval(%struct.Int) align 8 %0, i64 noundef %1, i32 noundef %2) #0 {
  %4 = alloca i64, align 8
  %5 = alloca i32, align 4
  store i64 %1, ptr %4, align 8
  store i32 %2, ptr %5, align 4
  %6 = load i32, ptr %5, align 4
  %7 = load i64, ptr %4, align 8
  %8 = call i32 @int_unsigned_compare(ptr noundef byval(%struct.Int) align 8 %0, i64 noundef %7)
  %9 = call zeroext i1 @binary_op_matches_res(i32 noundef %6, i32 noundef %8)
  ret i1 %9
}