; Function Attrs: nounwind uwtable
define dso_local zeroext i1 @int_ucomp(ptr noundef readonly byval(%struct.Int) align 8 captures(none) %0, i64 noundef %1, i32 noundef %2) local_unnamed_addr #0 {
  %4 = getelementptr inbounds nuw i8, ptr %0, i64 16
  %5 = load i32, ptr %4, align 8
  %6 = add i32 %5, -3
  %7 = icmp ult i32 %6, 5
  %8 = load i64, ptr %0, align 8
  %9 = icmp slt i64 %8, 0
  %or.cond.i = select i1 %7, i1 %9, i1 false
  br i1 %or.cond.i, label %int_unsigned_compare.exit, label %thread-pre-split.i

thread-pre-split.i:                               ; preds = %3
  %.not.i = icmp eq i64 %8, 0
  br i1 %.not.i, label %10, label %int_unsigned_compare.exit

10:                                               ; preds = %thread-pre-split.i
  %11 = getelementptr inbounds nuw i8, ptr %0, i64 8
  %12 = load i64, ptr %11, align 8
  %13 = icmp ugt i64 %12, %1
  br i1 %13, label %int_unsigned_compare.exit, label %14

14:                                               ; preds = %10
  %15 = icmp ult i64 %12, %1
  %..i = sext i1 %15 to i32
  br label %int_unsigned_compare.exit

int_unsigned_compare.exit:                        ; preds = %3, %thread-pre-split.i, %10, %14
  %.0.i = phi i32 [ 1, %10 ], [ 1, %thread-pre-split.i ], [ %..i, %14 ], [ -1, %3 ]
  switch i32 %2, label %28 [
    i32 14, label %16
    i32 15, label %18
    i32 16, label %20
    i32 17, label %22
    i32 18, label %24
    i32 19, label %26
  ]

16:                                               ; preds = %int_unsigned_compare.exit
  %17 = icmp eq i32 %.0.i, 1
  br label %binary_op_matches_res.exit

18:                                               ; preds = %int_unsigned_compare.exit
  %19 = icmp ne i32 %.0.i, -1
  br label %binary_op_matches_res.exit

20:                                               ; preds = %int_unsigned_compare.exit
  %21 = icmp eq i32 %.0.i, -1
  br label %binary_op_matches_res.exit

22:                                               ; preds = %int_unsigned_compare.exit
  %23 = icmp ne i32 %.0.i, 1
  br label %binary_op_matches_res.exit

24:                                               ; preds = %int_unsigned_compare.exit
  %25 = icmp ne i32 %.0.i, 0
  br label %binary_op_matches_res.exit

26:                                               ; preds = %int_unsigned_compare.exit
  %27 = icmp eq i32 %.0.i, 0
  br label %binary_op_matches_res.exit

28:                                               ; preds = %int_unsigned_compare.exit
  tail call void (ptr, ...) @error_exit(ptr noundef nonnull @.str, ptr noundef nonnull @.str.1, ptr noundef nonnull @__func__.binary_op_matches_res, ptr noundef nonnull @.str.2, i32 noundef 598) #20
  unreachable

binary_op_matches_res.exit:                       ; preds = %16, %18, %20, %22, %24, %26
  %.0.i2 = phi i1 [ %27, %26 ], [ %25, %24 ], [ %23, %22 ], [ %21, %20 ], [ %19, %18 ], [ %17, %16 ]
  ret i1 %.0.i2
}